EXPORTS
	_ZN13DIsaKernelAPI10OpenCancelEv @ 1 NONAME
	_ZN13DIsaKernelAPI11DataReceiveERP5TDes8RiRK4TDfc @ 2 NONAME
	_ZN13DIsaKernelAPI13ReceiveCancelEv @ 3 NONAME
	_ZN13DIsaKernelAPI14SendIndicationER5TDes8 @ 4 NONAME
	_ZN13DIsaKernelAPI16AllocateMsgBlockEi @ 5 NONAME
	_ZN13DIsaKernelAPI16NotifyFlowChangeER4TDfcRi @ 6 NONAME
	_ZN13DIsaKernelAPI17DataReceiveCancelEv @ 7 NONAME
	_ZN13DIsaKernelAPI17NotifyStateChangeER4TDfcRi @ 8 NONAME
	_ZN13DIsaKernelAPI18DeAllocateMsgBlockER5TDes8 @ 9 NONAME
	_ZN13DIsaKernelAPI20AllocateDataMsgBlockEi @ 10 NONAME
	_ZN13DIsaKernelAPI20SubscribeIndicationsERK6TDesC8i @ 11 NONAME
	_ZN13DIsaKernelAPI22DeAllocateDataMsgBlockER5TDes8 @ 12 NONAME
	_ZN13DIsaKernelAPI22NotifyFlowChangeCancelEv @ 13 NONAME
	_ZN13DIsaKernelAPI4NewFEv @ 14 NONAME
	_ZN13DIsaKernelAPI4OpenEtRiR4TDfcm @ 15 NONAME
	_ZN13DIsaKernelAPI4SendER5TDes8 @ 16 NONAME
	_ZN13DIsaKernelAPI5CloseEv @ 17 NONAME
	_ZN13DIsaKernelAPI7ReceiveERP5TDes8RiRK4TDfc @ 18 NONAME
	_ZN13DIsaKernelAPI8DataSendER5TDes8 @ 19 NONAME
	_ZN13DIsaKernelAPIC1Ev @ 20 NONAME
	_ZN13DIsaKernelAPIC2Ev @ 21 NONAME
	_ZN13DIsaKernelAPID0Ev @ 22 NONAME
	_ZN13DIsaKernelAPID1Ev @ 23 NONAME
	_ZN13DIsaKernelAPID2Ev @ 24 NONAME
	_ZN19DIsaAccessExtension12GetDFCThreadE13TIADDfcThread @ 25 NONAME
	_ZN7DRouter14DummyDoNothingEv @ 26 NONAME
	_ZN19DIsaAccessExtension17GetChannel2IADApiEv @ 27 NONAME
	_ZN6DQueue3AddERK6TDesC8 @ 28 NONAME
	_ZN6DQueue3GetEv @ 29 NONAME
	_ZN6DQueue5CountEv @ 30 NONAME
	_ZN6DQueue8RollBackERK6TDesC8 @ 31 NONAME
	_ZN6DQueueC1Ei @ 32 NONAME
	_ZN6DQueueC2Ei @ 33 NONAME
	_ZN6DQueueD0Ev @ 34 NONAME
	_ZN6DQueueD1Ev @ 35 NONAME
	_ZN6DQueueD2Ev @ 36 NONAME
	_ZN7DRouter10ReturnLoanEttP15MIAD2ChannelApi @ 37 NONAME
	_ZN7DRouter11SendMessageER5TDes8t @ 38 NONAME
	_ZN7DRouter13AllocateBlockEt @ 39 NONAME
	_ZN7DRouter14GetMaxDataSizeEv @ 40 NONAME
	_ZN7DRouter14SendIndicationER5TDes8t @ 41 NONAME
	_ZN7DRouter15DeAllocateBlockER5TDes8 @ 42 NONAME
	_ZN7DRouter15DummyDoNothing2Ev @ 43 NONAME
	_ZN7DRouter15OrderIndicationER5TDes8ti @ 44 NONAME
	_ZN7DRouter17AllocateDataBlockEt @ 45 NONAME
	_ZN7DRouter19GetConnectionStatusEv @ 46 NONAME
	_ZN7DRouter20GetFlowControlStatusEv @ 47 NONAME
	_ZN7DRouter4LoanEttP15MIAD2ChannelApi @ 48 NONAME
	_ZN7DRouter4OpenEttP15MIAD2ChannelApi @ 49 NONAME
	_ZN7DRouter4OpenEttRK6TDesC8P15MIAD2ChannelApi @ 50 NONAME
	_ZN7DRouter5CloseEt @ 51 NONAME
	_ZN7TIADReqC1E16TIADAsyncRequesti @ 52 NONAME
	_ZN7TIADReqC2E16TIADAsyncRequesti @ 53 NONAME
	_ZN9DReqQueue3AddE7TIADReq @ 54 NONAME
	_ZN9DReqQueue3GetEv @ 55 NONAME
	_ZN9DReqQueue5EmptyEv @ 56 NONAME
	_ZN9DReqQueue6GetReqE16TIADAsyncRequest @ 57 NONAME
	_ZN9DReqQueue6SetReqE16TIADAsyncRequestP14TRequestStatus @ 58 NONAME
	_ZN9DReqQueueC1Ev @ 59 NONAME
	_ZN9DReqQueueC2Ev @ 60 NONAME
	_ZN9DReqQueueD0Ev @ 61 NONAME
	_ZN9DReqQueueD1Ev @ 62 NONAME
	_ZN9DReqQueueD2Ev @ 63 NONAME
	_ZNK13DIsaKernelAPI23NotifyStateChangeCancelEv @ 64 NONAME
	_ZN18MISIObjectRouterIf7ConnectElRhP18MISIRouterObjectIf @ 65 NONAME

