EXPORTS
	??0CCore@@IAE@AAVCTestModuleIf@@@Z @ 1 NONAME ; CCore::CCore(class CTestModuleIf &)
	??1CCore@@UAE@XZ @ 2 NONAME ; CCore::~CCore(void)
	??1CMmMessageRouterBase@@UAE@XZ @ 3 NONAME ; CMmMessageRouterBase::~CMmMessageRouterBase(void)
	?BaseConstructL@CCore@@IAEXXZ @ 4 NONAME ; void CCore::BaseConstructL(void)
	?GetNextExpectedCompleteIPC@CCore@@QAEHXZ @ 5 NONAME ; int CCore::GetNextExpectedCompleteIPC(void)
	?HandleRequestL@CCore@@IAEHH@Z @ 6 NONAME ; int CCore::HandleRequestL(int)
	?HandleRequestL@CCore@@IAEHHPBVCMmDataPackage@@@Z @ 7 NONAME ; int CCore::HandleRequestL(int, class CMmDataPackage const *)
	?HandleSpecifiedRequests@CCore@@QAEHAAVCStifItemParser@@@Z @ 8 NONAME ; int CCore::HandleSpecifiedRequests(class CStifItemParser &)
	?InitializeIPCRequestTable@CCore@@QAEHXZ @ 9 NONAME ; int CCore::InitializeIPCRequestTable(void)
	?InitializeIscControlL@CCore@@QAEXABVTDesC16@@@Z @ 10 NONAME ; void CCore::InitializeIscControlL(class TDesC16 const &)
	?LibEntryL@@YAPAVCScriptBase@@AAVCTestModuleIf@@@Z @ 11 NONAME ; class CScriptBase * LibEntryL(class CTestModuleIf &)
	?NewL@CCore@@SAPAV1@AAVCTestModuleIf@@@Z @ 12 NONAME ; class CCore * CCore::NewL(class CTestModuleIf &)
	?Notify@CCore@@QAEXAAW4TNotifyList@1@@Z @ 13 NONAME ; void CCore::Notify(enum CCore::TNotifyList &)
	?RouteCompletion@CCore@@UAEXHPAVCMmDataPackage@@H@Z @ 14 NONAME ; void CCore::RouteCompletion(int, class CMmDataPackage *, int)
	?RouteCompletion@CMmMessageRouterBase@@UAEXHPAVCMmDataPackage@@H@Z @ 15 NONAME ; void CMmMessageRouterBase::RouteCompletion(int, class CMmDataPackage *, int)
	?RouteRequest@CMmMessageRouterBase@@UAEPAVMMmMessHandlerBase@@H@Z @ 16 NONAME ; class MMmMessHandlerBase * CMmMessageRouterBase::RouteRequest(int)
	?RunIscControlTestCase@CCore@@QAEXHH@Z @ 17 NONAME ; void CCore::RunIscControlTestCase(int, int)
	?RunIscTestCase@CCore@@QAEHAAVCStifItemParser@@@Z @ 18 NONAME ; int CCore::RunIscTestCase(class CStifItemParser &)
	?RunIscTestCaseIgnoreXMLsWhenRealCellmoInUseFlagIsDefined@CCore@@QAEHAAVCStifItemParser@@@Z @ 19 NONAME ; int CCore::RunIscTestCaseIgnoreXMLsWhenRealCellmoInUseFlagIsDefined(class CStifItemParser &)
	?SetCore@CMmMessageRouterBase@@QAEXPAVCCore@@@Z @ 20 NONAME ; void CMmMessageRouterBase::SetCore(class CCore *)
	?SetExpectedCompleteIPC@CCore@@QAEHAAVCStifItemParser@@@Z @ 21 NONAME ; int CCore::SetExpectedCompleteIPC(class CStifItemParser &)
	?SetObjectType@CCore@@MAEXW4TObjectType@1@PAX@Z @ 22 NONAME ; void CCore::SetObjectType(enum CCore::TObjectType, void *)
	?SetOperInfoAPAC@CCore@@QAEHAAVCStifItemParser@@@Z @ 23 NONAME ; int CCore::SetOperInfoAPAC(class CStifItemParser &)
	?SyncIscControl@CCore@@QAEXXZ @ 24 NONAME ; void CCore::SyncIscControl(void)
	?SyncIscTestCase@CCore@@QAEHXZ @ 25 NONAME ; int CCore::SyncIscTestCase(void)
	?SyncIscTestCaseDoNotSyncIfRealCellmoInUseFlagIsDefined@CCore@@QAEHXZ @ 26 NONAME ; int CCore::SyncIscTestCaseDoNotSyncIfRealCellmoInUseFlagIsDefined(void)
	?CloseNTSY@CCore@@QAEHXZ @ 27 NONAME ; int CCore::CloseNTSY(void)

