EXPORTS
	?HandleSpecifiedRequests@CCore@@QAEHAAVCStifItemParser@@@Z @ 1 NONAME ; int CCore::HandleSpecifiedRequests(class CStifItemParser &)
	?CreateMMAndLTSYfactoryAndGetMessageRouter@CCore@@QAEXXZ @ 2 NONAME ; void CCore::CreateMMAndLTSYfactoryAndGetMessageRouter(void)
	?SetObjectType@CCore@@MAEXW4TObjectType@1@PAX@Z @ 3 NONAME ; void CCore::SetObjectType(enum CCore::TObjectType, void *)
	?SyncIscControl@CCore@@QAEXXZ @ 4 NONAME ; void CCore::SyncIscControl(void)
	?Notify@CCore@@QAEXAAW4TNotifyList@1@@Z @ 5 NONAME ; void CCore::Notify(enum CCore::TNotifyList &)
	?BaseConstructL@CCore@@IAEXPAV1@@Z @ 6 NONAME ; void CCore::BaseConstructL(class CCore *)
	??1CCore@@UAE@XZ @ 7 NONAME ; CCore::~CCore(void)
	?RunIscTestCaseIgnoreXMLsWhenRealCellmoInUseFlagIsDefined@CCore@@QAEHAAVCStifItemParser@@@Z @ 8 NONAME ; int CCore::RunIscTestCaseIgnoreXMLsWhenRealCellmoInUseFlagIsDefined(class CStifItemParser &)
	?RunIscTestCase@CCore@@QAEHAAVCStifItemParser@@@Z @ 9 NONAME ; int CCore::RunIscTestCase(class CStifItemParser &)
	?HandleRequestL@CCore@@UAEHHPBVTDataPackage@@@Z @ 10 NONAME ; int CCore::HandleRequestL(int, class TDataPackage const *)
	?LibEntryL@@YAPAVCScriptBase@@AAVCTestModuleIf@@@Z @ 11 NONAME ; class CScriptBase * LibEntryL(class CTestModuleIf &)
	??0CCore@@IAE@AAVCTestModuleIf@@@Z @ 12 NONAME ; CCore::CCore(class CTestModuleIf &)
	?SyncIscTestCaseDoNotSyncIfRealCellmoInUseFlagIsDefined@CCore@@QAEHXZ @ 13 NONAME ; int CCore::SyncIscTestCaseDoNotSyncIfRealCellmoInUseFlagIsDefined(void)
	?RunIscControlTestCase@CCore@@QAEXHH@Z @ 14 NONAME ; void CCore::RunIscControlTestCase(int, int)
	?SetExpectedCompleteIPC@CCore@@QAEHAAVCStifItemParser@@@Z @ 15 NONAME ; int CCore::SetExpectedCompleteIPC(class CStifItemParser &)
	?CloseNTSY@CCore@@QAEHXZ @ 16 NONAME ; int CCore::CloseNTSY(void)
	?HandleRequestL@CCore@@UAEHHPBVCMmDataPackage@@@Z @ 17 NONAME ; int CCore::HandleRequestL(int, class CMmDataPackage const *)
	?SyncIscTestCaseStartNTSYAfterTestToolStart@CCore@@QAEHXZ @ 18 NONAME ; int CCore::SyncIscTestCaseStartNTSYAfterTestToolStart(void)
	?RunIscTestCaseStartNTSYAfterTestToolStart@CCore@@QAEHAAVCStifItemParser@@@Z @ 19 NONAME ; int CCore::RunIscTestCaseStartNTSYAfterTestToolStart(class CStifItemParser &)
	?GetNextExpectedCompleteIPC@CCore@@QAEHXZ @ 20 NONAME ; int CCore::GetNextExpectedCompleteIPC(void)
	?InitializeIscControlL@CCore@@QAEXABVTDesC16@@@Z @ 21 NONAME ; void CCore::InitializeIscControlL(class TDesC16 const &)
	?NewL@CCore@@SAPAV1@AAVCTestModuleIf@@@Z @ 22 NONAME ; class CCore * CCore::NewL(class CTestModuleIf &)
	?SyncIscTestCase@CCore@@QAEHXZ @ 23 NONAME ; int CCore::SyncIscTestCase(void)
	?InitializeIPCRequestTable@CCore@@QAEHXZ @ 24 NONAME ; int CCore::InitializeIPCRequestTable(void)
	?HandleRequestL@CCore@@UAEHH@Z @ 25 NONAME ; int CCore::HandleRequestL(int)
	?SetOperInfoAPAC@CCore@@QAEHAAVCStifItemParser@@@Z @ 26 NONAME ; int CCore::SetOperInfoAPAC(class CStifItemParser &)

